target datalayout = "e-m:e-p270:32:32-p271:32:32-p272:64:64-i64:64-i128:128-f80:128-n8:16:32:64-S128"
target triple = "x86_64-pc-linux-gnu"

%struct.tjscalingfactor = type { i32, i32 }
%struct.tjregion = type { i32, i32, i32, i32 }
%struct._tjinstance = type { %struct.jpeg_compress_struct, %struct.jpeg_decompress_struct, %struct.my_error_mgr, i32, [200 x i8], i32, i32, i32, i32, i32, i32, i32, i32, i32, i32, i32, i32, i32, i32, i32, i32, i32, i32, i32, i32, i32, i32, i32, %struct.tjscalingfactor, %struct.tjregion, i32, i32 }
%struct.jpeg_compress_struct = type { ptr, ptr, ptr, ptr, i32, i32, ptr, i32, i32, i32, i32, double, i32, i32, i32, ptr, [4 x ptr], [4 x ptr], [4 x ptr], [16 x i8], [16 x i8], [16 x i8], i32, ptr, i32, i32, i32, i32, i32, i32, i32, i32, i32, i8, i8, i8, i16, i16, i32, i32, i32, i32, i32, i32, i32, [4 x ptr], i32, i32, i32, [10 x i32], i32, i32, i32, i32, ptr, ptr, ptr, ptr, ptr, ptr, ptr, ptr, ptr, ptr, i32 }
%struct.jpeg_decompress_struct = type { ptr, ptr, ptr, ptr, i32, i32, ptr, i32, i32, i32, i32, i32, i32, i32, double, i32, i32, i32, i32, i32, i32, i32, i32, i32, i32, i32, i32, i32, i32, i32, i32, i32, i32, ptr, i32, i32, i32, i32, i32, ptr, [4 x ptr], [4 x ptr], [4 x ptr], i32, ptr, i32, i32, [16 x i8], [16 x i8], [16 x i8], i32, i32, i8, i8, i8, i16, i16, i32, i8, i32, ptr, i32, i32, i32, i32, ptr, i32, [4 x ptr], i32, i32, i32, [10 x i32], i32, i32, i32, i32, i32, ptr, ptr, ptr, ptr, ptr, ptr, ptr, ptr, ptr, ptr, ptr }
%struct.my_error_mgr = type { %struct.jpeg_error_mgr, [1 x %struct.__jmp_buf_tag], ptr, i32, i32 }
%struct.jpeg_error_mgr = type { ptr, ptr, ptr, ptr, ptr, i32, %union.anon, i32, i64, ptr, i32, ptr, i32, i32 }
%union.anon = type { [8 x i32], [48 x i8] }
%struct.__jmp_buf_tag = type { [8 x i64], i32, %struct.__sigset_t }
%struct.__sigset_t = type { [16 x i64] }

@tj3Init.FUNCTION_NAME = internal constant [8 x i8] c"tj3Init\00", align 1
@.str = private unnamed_addr constant [9 x i8] c"%s(): %s\00", align 1
@.str.1 = private unnamed_addr constant [17 x i8] c"Invalid argument\00", align 1
@.str.2 = private unnamed_addr constant [26 x i8] c"Memory allocation failure\00", align 1
@.str.3 = private unnamed_addr constant [9 x i8] c"No error\00", align 1
@TJUNSCALED = internal constant %struct.tjscalingfactor { i32 1, i32 1 }, align 4
@_tjInitCompress.buffer = internal global [1 x i8] zeroinitializer, align 1
@.str.123 = private unnamed_addr constant [15 x i8] c"JSIMD_FORCEMMX\00", align 1
@.str.124 = private unnamed_addr constant [2 x i8] c"1\00", align 1
@.str.125 = private unnamed_addr constant [15 x i8] c"JSIMD_FORCESSE\00", align 1
@.str.126 = private unnamed_addr constant [16 x i8] c"JSIMD_FORCESSE2\00", align 1

; Function Attrs: nounwind uwtable
define internal ptr @_tjInitCompress(ptr noundef %0) #0 {
  %2 = alloca ptr, align 8
  %3 = alloca ptr, align 8
  %4 = alloca ptr, align 8
  %5 = alloca i64, align 8
  store ptr %0, ptr %3, align 8
  store ptr @_tjInitCompress.buffer, ptr %4, align 8
  store i64 1, ptr %5, align 8
  %6 = load ptr, ptr %3, align 8
  %7 = getelementptr inbounds %struct._tjinstance, ptr %6, i32 0, i32 2
  %8 = getelementptr inbounds %struct.my_error_mgr, ptr %7, i32 0, i32 0
  %9 = call ptr @jpeg_std_error(ptr noundef %8)
  %10 = load ptr, ptr %3, align 8
  %11 = getelementptr inbounds %struct._tjinstance, ptr %10, i32 0, i32 0
  %12 = getelementptr inbounds %struct.jpeg_compress_struct, ptr %11, i32 0, i32 0
  store ptr %9, ptr %12, align 8
  %13 = load ptr, ptr %3, align 8
  %14 = getelementptr inbounds %struct._tjinstance, ptr %13, i32 0, i32 2
  %15 = getelementptr inbounds %struct.my_error_mgr, ptr %14, i32 0, i32 0
  %16 = getelementptr inbounds %struct.jpeg_error_mgr, ptr %15, i32 0, i32 0
  store ptr @my_error_exit, ptr %16, align 8
  %17 = load ptr, ptr %3, align 8
  %18 = getelementptr inbounds %struct._tjinstance, ptr %17, i32 0, i32 2
  %19 = getelementptr inbounds %struct.my_error_mgr, ptr %18, i32 0, i32 0
  %20 = getelementptr inbounds %struct.jpeg_error_mgr, ptr %19, i32 0, i32 2
  store ptr @my_output_message, ptr %20, align 8
  %21 = load ptr, ptr %3, align 8
  %22 = getelementptr inbounds %struct._tjinstance, ptr %21, i32 0, i32 2
  %23 = getelementptr inbounds %struct.my_error_mgr, ptr %22, i32 0, i32 0
  %24 = getelementptr inbounds %struct.jpeg_error_mgr, ptr %23, i32 0, i32 1
  %25 = load ptr, ptr %24, align 8
  %26 = load ptr, ptr %3, align 8
  %27 = getelementptr inbounds %struct._tjinstance, ptr %26, i32 0, i32 2
  %28 = getelementptr inbounds %struct.my_error_mgr, ptr %27, i32 0, i32 2
  store ptr %25, ptr %28, align 8
  %29 = load ptr, ptr %3, align 8
  %30 = getelementptr inbounds %struct._tjinstance, ptr %29, i32 0, i32 2
  %31 = getelementptr inbounds %struct.my_error_mgr, ptr %30, i32 0, i32 0
  %32 = getelementptr inbounds %struct.jpeg_error_mgr, ptr %31, i32 0, i32 1
  store ptr @my_emit_message, ptr %32, align 8
  %33 = load ptr, ptr %3, align 8
  %34 = getelementptr inbounds %struct._tjinstance, ptr %33, i32 0, i32 2
  %35 = getelementptr inbounds %struct.my_error_mgr, ptr %34, i32 0, i32 0
  %36 = getelementptr inbounds %struct.jpeg_error_mgr, ptr %35, i32 0, i32 11
  store ptr @turbojpeg_message_table, ptr %36, align 8
  %37 = load ptr, ptr %3, align 8
  %38 = getelementptr inbounds %struct._tjinstance, ptr %37, i32 0, i32 2
  %39 = getelementptr inbounds %struct.my_error_mgr, ptr %38, i32 0, i32 0
  %40 = getelementptr inbounds %struct.jpeg_error_mgr, ptr %39, i32 0, i32 12
  store i32 1000, ptr %40, align 8
  %41 = load ptr, ptr %3, align 8
  %42 = getelementptr inbounds %struct._tjinstance, ptr %41, i32 0, i32 2
  %43 = getelementptr inbounds %struct.my_error_mgr, ptr %42, i32 0, i32 0
  %44 = getelementptr inbounds %struct.jpeg_error_mgr, ptr %43, i32 0, i32 13
  store i32 1048, ptr %44, align 4
  %45 = load ptr, ptr %3, align 8
  %46 = getelementptr inbounds %struct._tjinstance, ptr %45, i32 0, i32 2
  %47 = getelementptr inbounds %struct.my_error_mgr, ptr %46, i32 0, i32 1
  %48 = getelementptr inbounds [1 x %struct.__jmp_buf_tag], ptr %47, i64 0, i64 0
  %49 = call i32 @_setjmp(ptr noundef %48) #13
  %50 = icmp ne i32 %49, 0
  br i1 %50, label %51, label %53

51:                                               ; preds = %1
  %52 = load ptr, ptr %3, align 8
  call void @free(ptr noundef %52) #11
  store ptr null, ptr %2, align 8
  br label %63

53:                                               ; preds = %1
  %54 = load ptr, ptr %3, align 8
  %55 = getelementptr inbounds %struct._tjinstance, ptr %54, i32 0, i32 0
  call void @jpeg_CreateCompress(ptr noundef %55, i32 noundef 62, i64 noundef 520)
  %56 = load ptr, ptr %3, align 8
  %57 = getelementptr inbounds %struct._tjinstance, ptr %56, i32 0, i32 0
  call void @jpeg_mem_dest_tj(ptr noundef %57, ptr noundef %4, ptr noundef %5, i32 noundef 0)
  %58 = load ptr, ptr %3, align 8
  %59 = getelementptr inbounds %struct._tjinstance, ptr %58, i32 0, i32 3
  %60 = load i32, ptr %59, align 8
  %61 = or i32 %60, 1
  store i32 %61, ptr %59, align 8
  %62 = load ptr, ptr %3, align 8
  store ptr %62, ptr %2, align 8
  br label %63

63:                                               ; preds = %53, %51
  %64 = load ptr, ptr %2, align 8
  ret ptr %64
}

; Function Attrs: nounwind uwtable
define internal void @processFlags(ptr noundef %0, i32 noundef %1, i32 noundef %2) #0 {
  %4 = alloca i32, align 4
  %5 = alloca ptr, align 8
  %6 = alloca ptr, align 8
  %7 = alloca i32, align 4
  %8 = alloca ptr, align 8
  %9 = alloca ptr, align 8
  %10 = alloca i32, align 4
  %11 = alloca ptr, align 8
  %12 = alloca ptr, align 8
  %13 = alloca ptr, align 8
  %14 = alloca i32, align 4
  %15 = alloca i32, align 4
  %16 = alloca ptr, align 8
  store ptr %0, ptr %13, align 8
  store i32 %1, ptr %14, align 4
  store i32 %2, ptr %15, align 4
  %17 = load ptr, ptr %13, align 8
  store ptr %17, ptr %16, align 8
  %18 = load i32, ptr %14, align 4
  %19 = and i32 %18, 2
  %20 = icmp ne i32 %19, 0
  %21 = xor i1 %20, true
  %22 = xor i1 %21, true
  %23 = zext i1 %22 to i32
  %24 = load ptr, ptr %16, align 8
  %25 = getelementptr inbounds %struct._tjinstance, ptr %24, i32 0, i32 6
  store i32 %23, ptr %25, align 8
  %26 = load i32, ptr %14, align 4
  %27 = and i32 %26, 8
  %28 = icmp ne i32 %27, 0
  br i1 %28, label %29, label %44

29:                                               ; preds = %3
  store ptr @.str.123, ptr %5, align 8
  store ptr @.str.124, ptr %6, align 8
  %30 = load ptr, ptr %5, align 8
  %31 = icmp ne ptr %30, null
  br i1 %31, label %32, label %35

32:                                               ; preds = %29
  %33 = load ptr, ptr %6, align 8
  %34 = icmp ne ptr %33, null
  br i1 %34, label %37, label %35

35:                                               ; preds = %32, %29
  %36 = call ptr @__errno_location() #16
  store i32 22, ptr %36, align 4
  store i32 22, ptr %4, align 4
  br label %43

37:                                               ; preds = %32
  %38 = load ptr, ptr %5, align 8
  %39 = load ptr, ptr %6, align 8
  %40 = call i32 @setenv(ptr noundef %38, ptr noundef %39, i32 noundef 1) #11
  %41 = call ptr @__errno_location() #16
  %42 = load i32, ptr %41, align 4
  store i32 %42, ptr %4, align 4
  br label %43

43:                                               ; preds = %37, %35
  br label %84

44:                                               ; preds = %3
  %45 = load i32, ptr %14, align 4
  %46 = and i32 %45, 16
  %47 = icmp ne i32 %46, 0
  br i1 %47, label %48, label %63

48:                                               ; preds = %44
  store ptr @.str.125, ptr %8, align 8
  store ptr @.str.124, ptr %9, align 8
  %49 = load ptr, ptr %8, align 8
  %50 = icmp ne ptr %49, null
  br i1 %50, label %51, label %54

51:                                               ; preds = %48
  %52 = load ptr, ptr %9, align 8
  %53 = icmp ne ptr %52, null
  br i1 %53, label %56, label %54

54:                                               ; preds = %51, %48
  %55 = call ptr @__errno_location() #16
  store i32 22, ptr %55, align 4
  store i32 22, ptr %7, align 4
  br label %62

56:                                               ; preds = %51
  %57 = load ptr, ptr %8, align 8
  %58 = load ptr, ptr %9, align 8
  %59 = call i32 @setenv(ptr noundef %57, ptr noundef %58, i32 noundef 1) #11
  %60 = call ptr @__errno_location() #16
  %61 = load i32, ptr %60, align 4
  store i32 %61, ptr %7, align 4
  br label %62

62:                                               ; preds = %56, %54
  br label %83

63:                                               ; preds = %44
  %64 = load i32, ptr %14, align 4
  %65 = and i32 %64, 32
  %66 = icmp ne i32 %65, 0
  br i1 %66, label %67, label %82

67:                                               ; preds = %63
  store ptr @.str.126, ptr %11, align 8
  store ptr @.str.124, ptr %12, align 8
  %68 = load ptr, ptr %11, align 8
  %69 = icmp ne ptr %68, null
  br i1 %69, label %70, label %73

70:                                               ; preds = %67
  %71 = load ptr, ptr %12, align 8
  %72 = icmp ne ptr %71, null
  br i1 %72, label %75, label %73

73:                                               ; preds = %70, %67
  %74 = call ptr @__errno_location() #16
  store i32 22, ptr %74, align 4
  store i32 22, ptr %10, align 4
  br label %81

75:                                               ; preds = %70
  %76 = load ptr, ptr %11, align 8
  %77 = load ptr, ptr %12, align 8
  %78 = call i32 @setenv(ptr noundef %76, ptr noundef %77, i32 noundef 1) #11
  %79 = call ptr @__errno_location() #16
  %80 = load i32, ptr %79, align 4
  store i32 %80, ptr %10, align 4
  br label %81

81:                                               ; preds = %75, %73
  br label %82

82:                                               ; preds = %81, %63
  br label %83

83:                                               ; preds = %82, %62
  br label %84

84:                                               ; preds = %83, %43
  %85 = load i32, ptr %14, align 4
  %86 = and i32 %85, 256
  %87 = icmp ne i32 %86, 0
  %88 = xor i1 %87, true
  %89 = xor i1 %88, true
  %90 = zext i1 %89 to i32
  %91 = load ptr, ptr %16, align 8
  %92 = getelementptr inbounds %struct._tjinstance, ptr %91, i32 0, i32 14
  store i32 %90, ptr %92, align 8
  %93 = load i32, ptr %14, align 4
  %94 = and i32 %93, 1024
  %95 = icmp ne i32 %94, 0
  %96 = xor i1 %95, true
  %97 = xor i1 %96, true
  %98 = zext i1 %97 to i32
  %99 = load ptr, ptr %16, align 8
  %100 = getelementptr inbounds %struct._tjinstance, ptr %99, i32 0, i32 7
  store i32 %98, ptr %100, align 4
  %101 = load i32, ptr %15, align 4
  %102 = icmp eq i32 %101, 1
  br i1 %102, label %103, label %119

103:                                              ; preds = %84
  %104 = load ptr, ptr %16, align 8
  %105 = getelementptr inbounds %struct._tjinstance, ptr %104, i32 0, i32 8
  %106 = load i32, ptr %105, align 8
  %107 = icmp sge i32 %106, 96
  br i1 %107, label %112, label %108

108:                                              ; preds = %103
  %109 = load i32, ptr %14, align 4
  %110 = and i32 %109, 4096
  %111 = icmp ne i32 %110, 0
  br i1 %111, label %112, label %115

112:                                              ; preds = %108, %103
  %113 = load ptr, ptr %16, align 8
  %114 = getelementptr inbounds %struct._tjinstance, ptr %113, i32 0, i32 15
  store i32 0, ptr %114, align 4
  br label %118

115:                                              ; preds = %108
  %116 = load ptr, ptr %16, align 8
  %117 = getelementptr inbounds %struct._tjinstance, ptr %116, i32 0, i32 15
  store i32 1, ptr %117, align 4
  br label %118

118:                                              ; preds = %115, %112
  br label %128

119:                                              ; preds = %84
  %120 = load i32, ptr %14, align 4
  %121 = and i32 %120, 2048
  %122 = icmp ne i32 %121, 0
  %123 = xor i1 %122, true
  %124 = xor i1 %123, true
  %125 = zext i1 %124 to i32
  %126 = load ptr, ptr %16, align 8
  %127 = getelementptr inbounds %struct._tjinstance, ptr %126, i32 0, i32 15
  store i32 %125, ptr %127, align 4
  br label %128

128:                                              ; preds = %119, %118
  %129 = load i32, ptr %14, align 4
  %130 = and i32 %129, 8192
  %131 = icmp ne i32 %130, 0
  %132 = xor i1 %131, true
  %133 = xor i1 %132, true
  %134 = zext i1 %133 to i32
  %135 = load ptr, ptr %16, align 8
  %136 = getelementptr inbounds %struct._tjinstance, ptr %135, i32 0, i32 2
  %137 = getelementptr inbounds %struct.my_error_mgr, ptr %136, i32 0, i32 4
  store i32 %134, ptr %137, align 4
  %138 = load i32, ptr %14, align 4
  %139 = and i32 %138, 16384
  %140 = icmp ne i32 %139, 0
  %141 = xor i1 %140, true
  %142 = xor i1 %141, true
  %143 = zext i1 %142 to i32
  %144 = load ptr, ptr %16, align 8
  %145 = getelementptr inbounds %struct._tjinstance, ptr %144, i32 0, i32 17
  store i32 %143, ptr %145, align 4
  %146 = load i32, ptr %14, align 4
  %147 = and i32 %146, 32768
  %148 = icmp ne i32 %147, 0
  br i1 %148, label %149, label %152

149:                                              ; preds = %128
  %150 = load ptr, ptr %16, align 8
  %151 = getelementptr inbounds %struct._tjinstance, ptr %150, i32 0, i32 18
  store i32 500, ptr %151, align 8
  br label %152

152:                                              ; preds = %149, %128
  ret void
}

; Function Attrs: nounwind uwtable
define ptr @tj3Init(i32 noundef %0) #0 {
  %2 = alloca ptr, align 8
  %3 = alloca i32, align 4
  %4 = alloca ptr, align 8
  %5 = alloca ptr, align 8
  store i32 %0, ptr %3, align 4
  store ptr null, ptr %4, align 8
  store ptr null, ptr %5, align 8
  %6 = load i32, ptr %3, align 4
  %7 = icmp slt i32 %6, 0
  br i1 %7, label %11, label %8

8:                                                ; preds = %1
  %9 = load i32, ptr %3, align 4
  %10 = icmp sge i32 %9, 3
  br i1 %10, label %11, label %15

11:                                               ; preds = %8, %1
  %12 = call align 16 ptr @llvm.threadlocal.address.p0(ptr align 16 @errStr)
  %13 = getelementptr inbounds [200 x i8], ptr %12, i64 0, i64 0
  %14 = call i32 (ptr, i64, ptr, ...) @snprintf(ptr noundef %13, i64 noundef 200, ptr noundef @.str, ptr noundef @tj3Init.FUNCTION_NAME, ptr noundef @.str.1) #11
  store ptr null, ptr %5, align 8
  br label %66

15:                                               ; preds = %8
  %16 = call noalias ptr @malloc(i64 noundef 1864) #12
  store ptr %16, ptr %4, align 8
  %17 = icmp eq ptr %16, null
  br i1 %17, label %18, label %22

18:                                               ; preds = %15
  %19 = call align 16 ptr @llvm.threadlocal.address.p0(ptr align 16 @errStr)
  %20 = getelementptr inbounds [200 x i8], ptr %19, i64 0, i64 0
  %21 = call i32 (ptr, i64, ptr, ...) @snprintf(ptr noundef %20, i64 noundef 200, ptr noundef @.str, ptr noundef @tj3Init.FUNCTION_NAME, ptr noundef @.str.2) #11
  store ptr null, ptr %5, align 8
  br label %66

22:                                               ; preds = %15
  %23 = load ptr, ptr %4, align 8
  call void @llvm.memset.p0.i64(ptr align 8 %23, i8 0, i64 1864, i1 false)
  %24 = load ptr, ptr %4, align 8
  %25 = getelementptr inbounds %struct._tjinstance, ptr %24, i32 0, i32 4
  %26 = getelementptr inbounds [200 x i8], ptr %25, i64 0, i64 0
  %27 = call i32 (ptr, i64, ptr, ...) @snprintf(ptr noundef %26, i64 noundef 200, ptr noundef @.str.3) #11
  %28 = load ptr, ptr %4, align 8
  %29 = getelementptr inbounds %struct._tjinstance, ptr %28, i32 0, i32 8
  store i32 -1, ptr %29, align 8
  %30 = load ptr, ptr %4, align 8
  %31 = getelementptr inbounds %struct._tjinstance, ptr %30, i32 0, i32 9
  store i32 -1, ptr %31, align 4
  %32 = load ptr, ptr %4, align 8
  %33 = getelementptr inbounds %struct._tjinstance, ptr %32, i32 0, i32 10
  store i32 -1, ptr %33, align 8
  %34 = load ptr, ptr %4, align 8
  %35 = getelementptr inbounds %struct._tjinstance, ptr %34, i32 0, i32 11
  store i32 -1, ptr %35, align 4
  %36 = load ptr, ptr %4, align 8
  %37 = getelementptr inbounds %struct._tjinstance, ptr %36, i32 0, i32 12
  store i32 8, ptr %37, align 8
  %38 = load ptr, ptr %4, align 8
  %39 = getelementptr inbounds %struct._tjinstance, ptr %38, i32 0, i32 13
  store i32 -1, ptr %39, align 4
  %40 = load ptr, ptr %4, align 8
  %41 = getelementptr inbounds %struct._tjinstance, ptr %40, i32 0, i32 21
  store i32 1, ptr %41, align 4
  %42 = load ptr, ptr %4, align 8
  %43 = getelementptr inbounds %struct._tjinstance, ptr %42, i32 0, i32 25
  store i32 1, ptr %43, align 4
  %44 = load ptr, ptr %4, align 8
  %45 = getelementptr inbounds %struct._tjinstance, ptr %44, i32 0, i32 26
  store i32 1, ptr %45, align 8
  %46 = load ptr, ptr %4, align 8
  %47 = getelementptr inbounds %struct._tjinstance, ptr %46, i32 0, i32 28
  call void @llvm.memcpy.p0.p0.i64(ptr align 8 %47, ptr align 4 @TJUNSCALED, i64 8, i1 false)
  %48 = load i32, ptr %3, align 4
  switch i32 %48, label %65 [
    i32 0, label %49
    i32 1, label %52
    i32 2, label %55
  ]

49:                                               ; preds = %22
  %50 = load ptr, ptr %4, align 8
  %51 = call ptr @_tjInitCompress(ptr noundef %50)
  store ptr %51, ptr %2, align 8
  br label %68

52:                                               ; preds = %22
  %53 = load ptr, ptr %4, align 8
  %54 = call ptr @_tjInitDecompress(ptr noundef %53)
  store ptr %54, ptr %2, align 8
  br label %68

55:                                               ; preds = %22
  %56 = load ptr, ptr %4, align 8
  %57 = call ptr @_tjInitCompress(ptr noundef %56)
  store ptr %57, ptr %5, align 8
  %58 = load ptr, ptr %5, align 8
  %59 = icmp ne ptr %58, null
  br i1 %59, label %61, label %60

60:                                               ; preds = %55
  store ptr null, ptr %2, align 8
  br label %68

61:                                               ; preds = %55
  %62 = load ptr, ptr %4, align 8
  %63 = call ptr @_tjInitDecompress(ptr noundef %62)
  store ptr %63, ptr %5, align 8
  %64 = load ptr, ptr %5, align 8
  store ptr %64, ptr %2, align 8
  br label %68

65:                                               ; preds = %22
  br label %66

66:                                               ; preds = %65, %18, %11
  %67 = load ptr, ptr %5, align 8
  store ptr %67, ptr %2, align 8
  br label %68

68:                                               ; preds = %66, %61, %60, %52, %49
  %69 = load ptr, ptr %2, align 8
  ret ptr %69
}

; Function Attrs: nounwind uwtable
define i32 @tjSaveImage(ptr noundef %0, ptr noundef %1, i32 noundef %2, i32 noundef %3, i32 noundef %4, i32 noundef %5, i32 noundef %6) #0 {
  %8 = alloca i32, align 4
  %9 = alloca ptr, align 8
  %10 = alloca ptr, align 8
  %11 = alloca i32, align 4
  %12 = alloca i32, align 4
  %13 = alloca i32, align 4
  %14 = alloca i32, align 4
  %15 = alloca i32, align 4
  %16 = alloca ptr, align 8
  %17 = alloca i32, align 4
  store ptr %0, ptr %9, align 8
  store ptr %1, ptr %10, align 8
  store i32 %2, ptr %11, align 4
  store i32 %3, ptr %12, align 4
  store i32 %4, ptr %13, align 4
  store i32 %5, ptr %14, align 4
  store i32 %6, ptr %15, align 4
  store ptr null, ptr %16, align 8
  store i32 -1, ptr %17, align 4
  %18 = call ptr @tj3Init(i32 noundef 1)
  store ptr %18, ptr %16, align 8
  %19 = icmp eq ptr %18, null
  br i1 %19, label %20, label %21

20:                                               ; preds = %7
  store i32 -1, ptr %8, align 4
  br label %34

21:                                               ; preds = %7
  %22 = load ptr, ptr %16, align 8
  %23 = load i32, ptr %15, align 4
  call void @processFlags(ptr noundef %22, i32 noundef %23, i32 noundef 2)
  %24 = load ptr, ptr %16, align 8
  %25 = load ptr, ptr %9, align 8
  %26 = load ptr, ptr %10, align 8
  %27 = load i32, ptr %11, align 4
  %28 = load i32, ptr %12, align 4
  %29 = load i32, ptr %13, align 4
  %30 = load i32, ptr %14, align 4
  %31 = call i32 @tj3SaveImage8(ptr noundef %24, ptr noundef %25, ptr noundef %26, i32 noundef %27, i32 noundef %28, i32 noundef %29, i32 noundef %30)
  store i32 %31, ptr %17, align 4
  %32 = load ptr, ptr %16, align 8
  call void @tj3Destroy(ptr noundef %32)
  %33 = load i32, ptr %17, align 4
  store i32 %33, ptr %8, align 4
  br label %34

34:                                               ; preds = %21, %20
  %35 = load i32, ptr %8, align 4
  ret i32 %35
}