; Function Attrs: nounwind uwtable
define range(i32 -1, 1) i32 @tjSaveImage(ptr noundef %0, ptr noundef %1, i32 noundef %2, i32 noundef %3, i32 noundef %4, i32 noundef %5, i32 noundef %6) local_unnamed_addr #0 {
  %calloc.i = tail call dereferenceable_or_null(1864) ptr @calloc(i64 1, i64 1864)
  %8 = icmp eq ptr %calloc.i, null
  br i1 %8, label %tj3Init.exit.thread, label %tj3Init.exit

tj3Init.exit.thread:                              ; preds = %7
  %9 = tail call align 16 ptr @llvm.threadlocal.address.p0(ptr align 16 @errStr)
  %10 = tail call i32 (ptr, i64, ptr, ...) @snprintf(ptr noundef nonnull dereferenceable(1) %9, i64 noundef 200, ptr noundef nonnull @.str, ptr noundef nonnull @tj3Init.FUNCTION_NAME, ptr noundef nonnull @.str.2) #26
  br label %45

tj3Init.exit:                                     ; preds = %7
  %11 = getelementptr inbounds i8, ptr %calloc.i, i64 1540
  tail call void @llvm.memcpy.p0.p0.i64(ptr noundef nonnull align 1 dereferenceable(9) %11, ptr noundef nonnull align 1 dereferenceable(9) @.str.3, i64 9, i1 false)
  %12 = getelementptr inbounds i8, ptr %calloc.i, i64 1752
  %13 = getelementptr inbounds i8, ptr %calloc.i, i64 1768
  tail call void @llvm.memset.p0.i64(ptr noundef nonnull align 8 dereferenceable(16) %12, i8 -1, i64 16, i1 false)
  store i32 8, ptr %13, align 8
  %14 = getelementptr inbounds i8, ptr %calloc.i, i64 1772
  store i32 -1, ptr %14, align 4
  %15 = getelementptr inbounds i8, ptr %calloc.i, i64 1804
  store i32 1, ptr %15, align 4
  %16 = getelementptr inbounds i8, ptr %calloc.i, i64 1820
  store i32 1, ptr %16, align 4
  %17 = getelementptr inbounds i8, ptr %calloc.i, i64 1824
  store i32 1, ptr %17, align 8
  %18 = getelementptr inbounds i8, ptr %calloc.i, i64 1832
  store i64 4294967297, ptr %18, align 8
  %19 = tail call fastcc ptr @_tjInitDecompress(ptr noundef nonnull %calloc.i)
  %20 = icmp eq ptr %19, null
  br i1 %20, label %45, label %21

21:                                               ; preds = %tj3Init.exit
  %22 = lshr i32 %6, 1
  %.lobit.i = and i32 %22, 1
  %23 = getelementptr inbounds i8, ptr %19, i64 1744
  store i32 %.lobit.i, ptr %23, align 8
  %24 = and i32 %6, 8
  %.not.i = icmp eq i32 %24, 0
  br i1 %.not.i, label %25, label %.sink.split.i

25:                                               ; preds = %21
  %26 = and i32 %6, 16
  %.not39.i = icmp eq i32 %26, 0
  br i1 %.not39.i, label %27, label %.sink.split.i

27:                                               ; preds = %25
  %28 = and i32 %6, 32
  %.not40.i = icmp eq i32 %28, 0
  br i1 %.not40.i, label %30, label %.sink.split.i

.sink.split.i:                                    ; preds = %27, %25, %21
  %.str.125.sink.i = phi ptr [ @.str.123, %21 ], [ @.str.125, %25 ], [ @.str.126, %27 ]
  %29 = tail call i32 @setenv(ptr noundef nonnull %.str.125.sink.i, ptr noundef nonnull @.str.124, i32 noundef 1) #26
  br label %30

30:                                               ; preds = %.sink.split.i, %27
  %31 = lshr i32 %6, 8
  %.lobit41.i = and i32 %31, 1
  %32 = getelementptr inbounds i8, ptr %19, i64 1776
  store i32 %.lobit41.i, ptr %32, align 8
  %33 = lshr i32 %6, 10
  %.lobit42.i = and i32 %33, 1
  %34 = getelementptr inbounds i8, ptr %19, i64 1748
  store i32 %.lobit42.i, ptr %34, align 4
  %35 = lshr i32 %6, 11
  %.lobit43.i = and i32 %35, 1
  %36 = getelementptr inbounds i8, ptr %19, i64 1780
  store i32 %.lobit43.i, ptr %36, align 4
  %37 = lshr i32 %6, 13
  %.lobit45.i = and i32 %37, 1
  %38 = getelementptr inbounds i8, ptr %19, i64 1532
  store i32 %.lobit45.i, ptr %38, align 4
  %39 = lshr i32 %6, 14
  %.lobit46.i = and i32 %39, 1
  %40 = getelementptr inbounds i8, ptr %19, i64 1788
  store i32 %.lobit46.i, ptr %40, align 4
  %41 = and i32 %6, 32768
  %.not47.i = icmp eq i32 %41, 0
  br i1 %.not47.i, label %processFlags.exit, label %42

42:                                               ; preds = %30
  %43 = getelementptr inbounds i8, ptr %19, i64 1792
  store i32 500, ptr %43, align 8
  br label %processFlags.exit

processFlags.exit:                                ; preds = %30, %42
  %44 = tail call i32 @tj3SaveImage8(ptr noundef nonnull %19, ptr noundef %0, ptr noundef %1, i32 noundef %2, i32 noundef %3, i32 noundef %4, i32 noundef %5)
  tail call void @tj3Destroy(ptr noundef nonnull %19)
  br label %45

45:                                               ; preds = %tj3Init.exit.thread, %tj3Init.exit, %processFlags.exit
  %.0 = phi i32 [ %44, %processFlags.exit ], [ -1, %tj3Init.exit ], [ -1, %tj3Init.exit.thread ]
  ret i32 %.0
}